target datalayout = "e-m:e-p270:32:32-p271:32:32-p272:64:64-i64:64-i128:128-f80:128-n8:16:32:64-S128"
target triple = "x86_64-pc-linux-gnu"

%struct.rb_vm_struct = type { i64, %struct.anon.0, ptr, i64, %struct.ccan_list_head, i32, i8, i64, ptr, [5 x i64], i64, i64, i64, i64, i64, i64, i64, i64, i64, ptr, ptr, ptr, %struct.anon.4, ptr, i32, %struct.ccan_list_head, %union.pthread_mutex_t, i64, i64, i64, i64, i32, %struct.anon.5, ptr, ptr, ptr, ptr, ptr, ptr, ptr, ptr, i64, [1023 x ptr], %struct.anon.6 }
%struct.anon.0 = type { %struct.ccan_list_head, i32, i32, ptr, ptr, %struct.anon.1, %struct.anon.3 }
%struct.anon.1 = type { %union.pthread_mutex_t, ptr, i32, %union.pthread_cond_t, i8 }
%union.pthread_cond_t = type { %struct.__pthread_cond_s }
%struct.__pthread_cond_s = type { %union.__atomic_wide_counter, %union.__atomic_wide_counter, [2 x i32], [2 x i32], i32, i32, [2 x i32] }
%union.__atomic_wide_counter = type { i64 }
%struct.anon.3 = type { %union.pthread_mutex_t, ptr, i8, %union.pthread_cond_t, i32, i32, i32, i32, %struct.ccan_list_head, i32, %struct.ccan_list_head, %struct.ccan_list_head, %struct.ccan_list_head, i8, %union.pthread_cond_t, %union.pthread_cond_t, i8, i32, i32 }
%struct.anon.4 = type { [65 x i64] }
%struct.ccan_list_head = type { %struct.ccan_list_node }
%struct.ccan_list_node = type { ptr, ptr }
%union.pthread_mutex_t = type { %struct.__pthread_mutex_s }
%struct.__pthread_mutex_s = type { i32, i32, i32, i32, i32, i16, i16, %struct.__pthread_internal_list }
%struct.__pthread_internal_list = type { ptr, ptr }
%struct.anon.5 = type { ptr, ptr }
%struct.anon.6 = type { i64, i64, i64, i64 }
%struct.RBasic = type { i64, i64 }
%struct.heap_page_body = type { %struct.heap_page_header }
%struct.heap_page_header = type { ptr }
%struct.heap_page = type { i16, i16, i16, i16, i16, [2 x i8], %struct.anon.20, ptr, ptr, ptr, i64, ptr, %struct.ccan_list_node, [26 x i64], [26 x i64], [26 x i64], [26 x i64], [26 x i64], [26 x i64], [52 x i64] }
%struct.anon.20 = type { i8, [3 x i8] }
%struct.RMoved = type { i64, i64, i64, i32 }

@ruby_current_vm_ptr = external global ptr, align 8

; Function Attrs: nounwind sspstrong uwtable
define internal i64 @rb_gc_impl_obj_slot_size(i64 noundef %0) #0 {
  %2 = alloca i64, align 8
  store i64 %0, ptr %2, align 8, !tbaa !18
  %3 = load i64, ptr %2, align 8, !tbaa !18
  %4 = and i64 %3, -65536
  %5 = inttoptr i64 %4 to ptr
  %6 = getelementptr inbounds nuw %struct.heap_page_body, ptr %5, i32 0, i32 0
  %7 = getelementptr inbounds nuw %struct.heap_page_header, ptr %6, i32 0, i32 0
  %8 = load ptr, ptr %7, align 8, !tbaa !169
  %9 = getelementptr inbounds nuw %struct.heap_page, ptr %8, i32 0, i32 0
  %10 = load i16, ptr %9, align 8, !tbaa !172
  %11 = zext i16 %10 to i32
  %12 = sub i32 %11, 0
  %13 = sext i32 %12 to i64
  ret i64 %13
}

; Function Attrs: inlinehint nounwind sspstrong uwtable
define internal void @asan_poison_memory_region(ptr noundef %0, i64 noundef %1) #2 {
  %3 = alloca ptr, align 8
  %4 = alloca i64, align 8
  store ptr %0, ptr %3, align 8, !tbaa !76
  store i64 %1, ptr %4, align 8, !tbaa !18
  ret void
}

; Function Attrs: inlinehint nounwind sspstrong uwtable
define internal void @asan_unpoison_memory_region(ptr noundef %0, i64 noundef %1, i1 noundef zeroext %2) #2 {
  %4 = alloca ptr, align 8
  %5 = alloca i64, align 8
  %6 = alloca i8, align 1
  store ptr %0, ptr %4, align 8, !tbaa !76
  store i64 %1, ptr %5, align 8, !tbaa !18
  %7 = zext i1 %2 to i8
  store i8 %7, ptr %6, align 1, !tbaa !41
  %8 = load i8, ptr %6, align 1, !tbaa !41, !range !122, !noundef !123
  %9 = trunc i8 %8 to i1
  br i1 %9, label %10, label %11

10:                                               ; preds = %3
  br label %12

11:                                               ; preds = %3
  br label %12

12:                                               ; preds = %11, %10
  ret void
}

; Function Attrs: nounwind sspstrong uwtable
define dso_local i64 @rb_gc_obj_slot_size(i64 noundef %0) #0 {
  %2 = alloca i64, align 8
  store i64 %0, ptr %2, align 8, !tbaa !18
  %3 = load i64, ptr %2, align 8, !tbaa !18
  %4 = call i64 @rb_gc_impl_obj_slot_size(i64 noundef %3)
  ret i64 %4
}

; Function Attrs: nounwind sspstrong uwtable
define dso_local void @rb_asan_poison_object(i64 noundef %0) #0 {
  %2 = alloca i64, align 8
  %3 = alloca ptr, align 8
  store i64 %0, ptr %2, align 8, !tbaa !18
  call void @llvm.lifetime.start.p0(i64 8, ptr %3) #6
  %4 = load i64, ptr %2, align 8, !tbaa !18
  %5 = inttoptr i64 %4 to ptr
  store ptr %5, ptr %3, align 8, !tbaa !405
  %6 = load ptr, ptr %3, align 8, !tbaa !405
  %7 = load i64, ptr %2, align 8, !tbaa !18
  %8 = call i64 @rb_gc_obj_slot_size(i64 noundef %7)
  call void @asan_poison_memory_region(ptr noundef %6, i64 noundef %8)
  call void @llvm.lifetime.end.p0(i64 8, ptr %3) #6
  ret void
}

; Function Attrs: nounwind sspstrong uwtable
define dso_local void @rb_asan_unpoison_object(i64 noundef %0, i1 noundef zeroext %1) #0 {
  %3 = alloca i64, align 8
  %4 = alloca i8, align 1
  %5 = alloca ptr, align 8
  store i64 %0, ptr %3, align 8, !tbaa !18
  %6 = zext i1 %1 to i8
  store i8 %6, ptr %4, align 1, !tbaa !41
  call void @llvm.lifetime.start.p0(i64 8, ptr %5) #6
  %7 = load i64, ptr %3, align 8, !tbaa !18
  %8 = inttoptr i64 %7 to ptr
  store ptr %8, ptr %5, align 8, !tbaa !407
  %9 = load ptr, ptr %5, align 8, !tbaa !407
  %10 = load i64, ptr %3, align 8, !tbaa !18
  %11 = call i64 @rb_gc_obj_slot_size(i64 noundef %10)
  %12 = load i8, ptr %4, align 1, !tbaa !41, !range !122, !noundef !123
  %13 = trunc i8 %12 to i1
  call void @asan_unpoison_memory_region(ptr noundef %9, i64 noundef %11, i1 noundef zeroext %13)
  call void @llvm.lifetime.end.p0(i64 8, ptr %5) #6
  ret void
}

; Function Attrs: nounwind sspstrong uwtable
define dso_local ptr @rb_asan_poisoned_object_p(i64 noundef %0) #0 {
  %2 = alloca i64, align 8
  %3 = alloca ptr, align 8
  store i64 %0, ptr %2, align 8, !tbaa !18
  call void @llvm.lifetime.start.p0(i64 8, ptr %3) #6
  %4 = load i64, ptr %2, align 8, !tbaa !18
  %5 = inttoptr i64 %4 to ptr
  store ptr %5, ptr %3, align 8, !tbaa !409
  call void @llvm.lifetime.end.p0(i64 8, ptr %3) #6
  ret ptr null
}

; Function Attrs: inlinehint nounwind sspstrong uwtable
define internal ptr @asan_poison_object_restore(i64 noundef %0, ptr noundef %1) #2 {
  %3 = alloca i64, align 8
  %4 = alloca ptr, align 8
  store i64 %0, ptr %3, align 8, !tbaa !18
  store ptr %1, ptr %4, align 8, !tbaa !76
  %5 = load ptr, ptr %4, align 8, !tbaa !76
  %6 = icmp ne ptr %5, null
  br i1 %6, label %7, label %9

7:                                                ; preds = %2
  %8 = load i64, ptr %3, align 8, !tbaa !18
  call void @rb_asan_poison_object(i64 noundef %8)
  br label %9

9:                                                ; preds = %7, %2
  ret ptr null
}

; Function Attrs: inlinehint nounwind sspstrong willreturn memory(read) uwtable
define internal i32 @RB_BUILTIN_TYPE(i64 noundef %0) #9 {
  %2 = alloca i64, align 8
  %3 = alloca i64, align 8
  store i64 %0, ptr %2, align 8, !tbaa !18
  call void @llvm.lifetime.start.p0(i64 8, ptr %3) #6
  %4 = load i64, ptr %2, align 8, !tbaa !18
  %5 = inttoptr i64 %4 to ptr
  %6 = getelementptr inbounds nuw %struct.RBasic, ptr %5, i32 0, i32 0
  %7 = load i64, ptr %6, align 8, !tbaa !117
  %8 = and i64 %7, 31
  store i64 %8, ptr %3, align 8, !tbaa !18
  %9 = load i64, ptr %3, align 8, !tbaa !18
  %10 = trunc i64 %9 to i32
  call void @llvm.lifetime.end.p0(i64 8, ptr %3) #6
  ret i32 %10
}

; Function Attrs: inlinehint nounwind sspstrong uwtable
define internal ptr @asan_unpoison_object_temporary(i64 noundef %0) #2 {
  %2 = alloca i64, align 8
  %3 = alloca ptr, align 8
  store i64 %0, ptr %2, align 8, !tbaa !18
  call void @llvm.lifetime.start.p0(i64 8, ptr %3) #6
  %4 = load i64, ptr %2, align 8, !tbaa !18
  %5 = call ptr @rb_asan_poisoned_object_p(i64 noundef %4)
  store ptr %5, ptr %3, align 8, !tbaa !76
  %6 = load i64, ptr %2, align 8, !tbaa !18
  call void @rb_asan_unpoison_object(i64 noundef %6, i1 noundef zeroext false)
  %7 = load ptr, ptr %3, align 8, !tbaa !76
  call void @llvm.lifetime.end.p0(i64 8, ptr %3) #6
  ret ptr %7
}

; Function Attrs: inlinehint nounwind sspstrong willreturn memory(none) uwtable
define internal zeroext i1 @RB_IMMEDIATE_P(i64 noundef %0) #7 {
  %2 = alloca i64, align 8
  store i64 %0, ptr %2, align 8, !tbaa !18
  %3 = load i64, ptr %2, align 8, !tbaa !18
  %4 = and i64 %3, 7
  %5 = icmp ne i64 %4, 0
  ret i1 %5
}

; Function Attrs: nounwind sspstrong uwtable
define internal i64 @rb_gc_impl_location(ptr noundef %0, i64 noundef %1) #0 {
  %3 = alloca ptr, align 8
  %4 = alloca i64, align 8
  %5 = alloca i64, align 8
  %6 = alloca ptr, align 8
  %7 = alloca ptr, align 8
  store ptr %0, ptr %3, align 8, !tbaa !76
  store i64 %1, ptr %4, align 8, !tbaa !18
  call void @llvm.lifetime.start.p0(i64 8, ptr %5) #6
  call void @llvm.lifetime.start.p0(i64 8, ptr %6) #6
  %8 = load i64, ptr %4, align 8, !tbaa !18
  %9 = call ptr @asan_unpoison_object_temporary(i64 noundef %8)
  store ptr %9, ptr %6, align 8, !tbaa !76
  call void @llvm.lifetime.start.p0(i64 8, ptr %7) #6
  store ptr %6, ptr %7, align 8, !tbaa !76
  br label %10

10:                                               ; preds = %26, %2
  %11 = load ptr, ptr %7, align 8, !tbaa !76
  %12 = icmp ne ptr %11, null
  br i1 %12, label %14, label %13

13:                                               ; preds = %10
  call void @llvm.lifetime.end.p0(i64 8, ptr %7) #6
  call void @llvm.lifetime.end.p0(i64 8, ptr %6) #6
  br label %30

14:                                               ; preds = %10
  %15 = load i64, ptr %4, align 8, !tbaa !18
  %16 = call i32 @RB_BUILTIN_TYPE(i64 noundef %15) #44
  %17 = icmp eq i32 %16, 30
  br i1 %17, label %18, label %23

18:                                               ; preds = %14
  %19 = load i64, ptr %4, align 8, !tbaa !18
  %20 = inttoptr i64 %19 to ptr
  %21 = getelementptr inbounds nuw %struct.RMoved, ptr %20, i32 0, i32 2
  %22 = load i64, ptr %21, align 8, !tbaa !594
  store i64 %22, ptr %5, align 8, !tbaa !18
  br label %25

23:                                               ; preds = %14
  %24 = load i64, ptr %4, align 8, !tbaa !18
  store i64 %24, ptr %5, align 8, !tbaa !18
  br label %25

25:                                               ; preds = %23, %18
  br label %26

26:                                               ; preds = %25
  %27 = load i64, ptr %4, align 8, !tbaa !18
  %28 = load ptr, ptr %6, align 8, !tbaa !76
  %29 = call ptr @asan_poison_object_restore(i64 noundef %27, ptr noundef %28)
  store ptr %29, ptr %7, align 8, !tbaa !76
  br label %10, !llvm.loop !595

30:                                               ; preds = %13
  %31 = load i64, ptr %5, align 8, !tbaa !18
  call void @llvm.lifetime.end.p0(i64 8, ptr %5) #6
  ret i64 %31
}

; Function Attrs: inlinehint nounwind sspstrong willreturn memory(none) uwtable
define internal zeroext i1 @RB_SPECIAL_CONST_P(i64 noundef %0) #7 {
  %2 = alloca i64, align 8
  store i64 %0, ptr %2, align 8, !tbaa !18
  %3 = load i64, ptr %2, align 8, !tbaa !18
  %4 = icmp eq i64 %3, 0
  br i1 %4, label %8, label %5

5:                                                ; preds = %1
  %6 = load i64, ptr %2, align 8, !tbaa !18
  %7 = call zeroext i1 @RB_IMMEDIATE_P(i64 noundef %6) #42
  br label %8

8:                                                ; preds = %5, %1
  %9 = phi i1 [ true, %1 ], [ %7, %5 ]
  ret i1 %9
}

; Function Attrs: inlinehint nounwind sspstrong uwtable
define internal ptr @rb_current_vm() #2 {
  %1 = load ptr, ptr @ruby_current_vm_ptr, align 8, !tbaa !74
  ret ptr %1
}

; Function Attrs: nounwind sspstrong uwtable
define internal i64 @gc_location_internal(ptr noundef %0, i64 noundef %1) #0 {
  %3 = alloca i64, align 8
  %4 = alloca ptr, align 8
  %5 = alloca i64, align 8
  store ptr %0, ptr %4, align 8, !tbaa !76
  store i64 %1, ptr %5, align 8, !tbaa !18
  %6 = load i64, ptr %5, align 8, !tbaa !18
  %7 = call zeroext i1 @RB_SPECIAL_CONST_P(i64 noundef %6) #42
  br i1 %7, label %8, label %10

8:                                                ; preds = %2
  %9 = load i64, ptr %5, align 8, !tbaa !18
  store i64 %9, ptr %3, align 8
  br label %14

10:                                               ; preds = %2
  %11 = load ptr, ptr %4, align 8, !tbaa !76
  %12 = load i64, ptr %5, align 8, !tbaa !18
  %13 = call i64 @rb_gc_impl_location(ptr noundef %11, i64 noundef %12)
  store i64 %13, ptr %3, align 8
  br label %14

14:                                               ; preds = %10, %8
  %15 = load i64, ptr %3, align 8
  ret i64 %15
}

; Function Attrs: nounwind sspstrong uwtable
define dso_local ptr @rb_gc_get_objspace() #0 {
  %1 = call ptr @rb_current_vm()
  %2 = getelementptr inbounds nuw %struct.rb_vm_struct, ptr %1, i32 0, i32 32
  %3 = getelementptr inbounds nuw %struct.anon.5, ptr %2, i32 0, i32 0
  %4 = load ptr, ptr %3, align 8, !tbaa !55
  ret ptr %4
}

; Function Attrs: nounwind sspstrong uwtable
define dso_local i64 @rb_gc_location(i64 noundef %0) #0 {
  %2 = alloca i64, align 8
  store i64 %0, ptr %2, align 8, !tbaa !18
  %3 = call ptr @rb_gc_get_objspace()
  %4 = load i64, ptr %2, align 8, !tbaa !18
  %5 = call i64 @gc_location_internal(ptr noundef %3, i64 noundef %4)
  ret i64 %5
}

; Function Attrs: nounwind sspstrong uwtable
define internal i32 @hash_foreach_replace(i64 noundef %0, i64 noundef %1, i64 noundef %2, i32 noundef %3) #0 {
  %5 = alloca i32, align 4
  %6 = alloca i64, align 8
  %7 = alloca i64, align 8
  %8 = alloca i64, align 8
  %9 = alloca i32, align 4
  store i64 %0, ptr %6, align 8, !tbaa !18
  store i64 %1, ptr %7, align 8, !tbaa !18
  store i64 %2, ptr %8, align 8, !tbaa !18
  store i32 %3, ptr %9, align 4, !tbaa !7
  %10 = load i64, ptr %6, align 8, !tbaa !18
  %11 = call i64 @rb_gc_location(i64 noundef %10)
  %12 = load i64, ptr %6, align 8, !tbaa !18
  %13 = icmp ne i64 %11, %12
  br i1 %13, label %14, label %15

14:                                               ; preds = %4
  store i32 4, ptr %5, align 4
  br label %22

15:                                               ; preds = %4
  %16 = load i64, ptr %7, align 8, !tbaa !18
  %17 = call i64 @rb_gc_location(i64 noundef %16)
  %18 = load i64, ptr %7, align 8, !tbaa !18
  %19 = icmp ne i64 %17, %18
  br i1 %19, label %20, label %21

20:                                               ; preds = %15
  store i32 4, ptr %5, align 4
  br label %22

21:                                               ; preds = %15
  store i32 0, ptr %5, align 4
  br label %22

22:                                               ; preds = %21, %20, %14
  %23 = load i32, ptr %5, align 4
  ret i32 %23
}