; Function Attrs: mustprogress nofree norecurse nosync nounwind sspstrong willreturn memory(read, inaccessiblemem: none) uwtable
define internal range(i32 0, 5) i32 @hash_foreach_replace(i64 noundef %0, i64 noundef %1, i64 %2, i32 %3) #4 {
  %5 = icmp eq i64 %0, 0
  %6 = and i64 %0, 7
  %7 = icmp ne i64 %6, 0
  %8 = or i1 %5, %7
  br i1 %8, label %rb_gc_location.exit.thread, label %9

9:                                                ; preds = %4
  %10 = inttoptr i64 %0 to ptr
  %11 = load i64, ptr %10, align 8, !tbaa !113
  %12 = and i64 %11, 31
  %13 = icmp eq i64 %12, 30
  br i1 %13, label %rb_gc_location.exit, label %rb_gc_location.exit.thread

rb_gc_location.exit:                              ; preds = %9
  %14 = getelementptr inbounds nuw i8, ptr %10, i64 16
  %15 = load i64, ptr %14, align 8, !tbaa !283
  %.not = icmp eq i64 %15, %0
  br i1 %.not, label %rb_gc_location.exit.thread, label %27

rb_gc_location.exit.thread:                       ; preds = %9, %4, %rb_gc_location.exit
  %16 = icmp eq i64 %1, 0
  %17 = and i64 %1, 7
  %18 = icmp ne i64 %17, 0
  %19 = or i1 %16, %18
  br i1 %19, label %rb_gc_location.exit8, label %20

20:                                               ; preds = %rb_gc_location.exit.thread
  %21 = inttoptr i64 %1 to ptr
  %22 = load i64, ptr %21, align 8, !tbaa !113
  %23 = and i64 %22, 31
  %24 = icmp eq i64 %23, 30
  br i1 %24, label %.split2.us.i.i.i7, label %rb_gc_location.exit8

.split2.us.i.i.i7:                                ; preds = %20
  %25 = getelementptr inbounds nuw i8, ptr %21, i64 16
  %26 = load i64, ptr %25, align 8, !tbaa !283
  br label %rb_gc_location.exit8

rb_gc_location.exit8:                             ; preds = %rb_gc_location.exit.thread, %20, %.split2.us.i.i.i7
  %.0.i.i6 = phi i64 [ %1, %rb_gc_location.exit.thread ], [ %26, %.split2.us.i.i.i7 ], [ %1, %20 ]
  %.not5 = icmp eq i64 %.0.i.i6, %1
  %. = select i1 %.not5, i32 0, i32 4
  br label %27

27:                                               ; preds = %rb_gc_location.exit8, %rb_gc_location.exit
  %.0 = phi i32 [ 4, %rb_gc_location.exit ], [ %., %rb_gc_location.exit8 ]
  ret i32 %.0
}